; Function Attrs: mustprogress uwtable
define dso_local void @_ZN4Luau7CodeGen3X6418AssemblyBuilderX644pushENS1_10OperandX64E(ptr noundef nonnull align 8 dereferenceable(252) %0, i64 %1) local_unnamed_addr #0 align 2 {
  %3 = getelementptr inbounds nuw i8, ptr %0, i64 80
  %4 = load i8, ptr %3, align 8, !tbaa !14, !range !61, !noundef !62
  %5 = trunc nuw i8 %4 to i1
  br i1 %5, label %6, label %7

6:                                                ; preds = %2
  tail call void @_ZN4Luau7CodeGen3X6418AssemblyBuilderX643logEPKcNS1_10OperandX64E(ptr noundef nonnull align 8 dereferenceable(252) %0, ptr noundef nonnull @.str.27, i64 %1)
  br label %7

7:                                                ; preds = %6, %2
  %.sroa.2.0.extract.shift = lshr i64 %1, 16
  %.sroa.2.0.extract.trunc = trunc i64 %.sroa.2.0.extract.shift to i8
  %8 = and i8 %.sroa.2.0.extract.trunc, 7
  %9 = icmp eq i8 %8, 4
  %10 = icmp eq i8 %8, 1
  %11 = icmp ugt i8 %.sroa.2.0.extract.trunc, 31
  %12 = and i1 %11, %10
  %13 = or i1 %9, %12
  %14 = select i1 %13, i8 8, i8 0
  %15 = lshr i8 %.sroa.2.0.extract.trunc, 6
  %16 = and i8 %15, 1
  %17 = or disjoint i8 %14, %16
  %.not.i = icmp eq i8 %17, 0
  br i1 %.not.i, label %_ZN4Luau7CodeGen3X6418AssemblyBuilderX648placeRexENS1_11RegisterX64E.exit, label %18

18:                                               ; preds = %7
  %19 = or disjoint i8 %17, 64
  %20 = getelementptr inbounds nuw i8, ptr %0, i64 232
  %21 = load ptr, ptr %20, align 8, !tbaa !51
  %22 = getelementptr inbounds nuw i8, ptr %21, i64 1
  store ptr %22, ptr %20, align 8, !tbaa !51
  store i8 %19, ptr %21, align 1, !tbaa !13
  br label %_ZN4Luau7CodeGen3X6418AssemblyBuilderX648placeRexENS1_11RegisterX64E.exit

_ZN4Luau7CodeGen3X6418AssemblyBuilderX648placeRexENS1_11RegisterX64E.exit: ; preds = %7, %18
  %23 = lshr i8 %.sroa.2.0.extract.trunc, 3
  %24 = and i8 %23, 7
  %25 = or disjoint i8 %24, 80
  %26 = getelementptr inbounds nuw i8, ptr %0, i64 232
  %27 = load ptr, ptr %26, align 8, !tbaa !51
  %28 = getelementptr inbounds nuw i8, ptr %27, i64 1
  store ptr %28, ptr %26, align 8, !tbaa !51
  store i8 %25, ptr %27, align 1, !tbaa !13
  %29 = getelementptr inbounds nuw i8, ptr %0, i64 248
  %30 = load i32, ptr %29, align 8, !tbaa !63
  %31 = add i32 %30, 1
  store i32 %31, ptr %29, align 8, !tbaa !63
  %32 = getelementptr inbounds nuw i8, ptr %0, i64 240
  %33 = load ptr, ptr %32, align 8, !tbaa !52
  %34 = load ptr, ptr %26, align 8, !tbaa !51
  %35 = ptrtoint ptr %33 to i64
  %36 = ptrtoint ptr %34 to i64
  %37 = sub i64 %35, %36
  %38 = and i64 %37, 4294967280
  %39 = icmp eq i64 %38, 0
  br i1 %39, label %40, label %_ZN4Luau7CodeGen3X6418AssemblyBuilderX646commitEv.exit

40:                                               ; preds = %_ZN4Luau7CodeGen3X6418AssemblyBuilderX648placeRexENS1_11RegisterX64E.exit
  tail call void @_ZN4Luau7CodeGen3X6418AssemblyBuilderX646extendEv(ptr noundef nonnull align 8 dereferenceable(252) %0)
  br label %_ZN4Luau7CodeGen3X6418AssemblyBuilderX646commitEv.exit

_ZN4Luau7CodeGen3X6418AssemblyBuilderX646commitEv.exit: ; preds = %_ZN4Luau7CodeGen3X6418AssemblyBuilderX648placeRexENS1_11RegisterX64E.exit, %40
  ret void
}